(iMolKit.APBSParameters
APBSParams
p0
(dp1
S'solventRadius'
p2
F1.4
sS'ions'
p3
(lp4
sS'surfaceCalculation'
p5
S'Cubic B-spline'
p6
sS'pdb2pqr_Path'
p7
S'/home/mirjr/Apps/ad/mgltools_x86_64Linux2_1.5.7/MGLToolsPckgs/MolKit/pdb2pqr/pdb2pqr.py'
p8
sS'xShiftedDielectricFile'
p9
S''
p10
sS'proteinDielectric'
p11
F2.0
sS'projectFolder'
p12
S'/home/mirjr/Documents/github/bioinfo/docking/autodock/03-kreatine-kinase/3/galic_acid/apbs-receptor'
p13
sS'zShiftedDielectricFile'
p14
g10
sS'complexPath'
p15
g10
sS'splineBasedAccessibilityFile'
p16
g10
sS'chargeDiscretization'
p17
g6
sS'ionAccessibilityFile'
p18
g10
sS'gridPointsY'
p19
I65
sS'chargeDistributionFile'
p20
g10
sS'ionChargeDensityFile'
p21
g10
sS'pdb2pqr_ForceField'
p22
S'amber'
p23
sS'energyDensityFile'
p24
g10
sS'fineCenterZ'
p25
F21.1715
sS'forceOutput'
p26
g10
sS'fineCenterX'
p27
F24.5335
sS'fineCenterY'
p28
F28.001
sS'potentialFile'
p29
S'OpenDX'
p30
sS'splineWindow'
p31
F0.3
sS'yShiftedDielectricFile'
p32
g10
sS'VDWAccessibilityFile'
p33
g10
sS'gridPointsX'
p34
I65
sS'molecule1Path'
p35
S'receptor.pqr'
p36
sS'sdens'
p37
F10.0
sS'coarseLengthY'
p38
F99.646
sS'boundaryConditions'
p39
S'Single Debye-Huckel'
p40
sS'calculationType'
p41
S'Electrostatic potential'
p42
sS'fineLengthZ'
p43
F69.175
sS'fineLengthY'
p44
F69.76400000000001
sS'fineLengthX'
p45
F68.005
sS'laplacianOfPotentialFile'
p46
g10
sS'saltConcentration'
p47
F0.01
sS'pbeType'
p48
S'Linearized'
p49
sS'coarseCenterX'
p50
F24.5335
sS'coarseCenterZ'
p51
F21.1715
sS'ionNumberFile'
p52
g10
sS'coarseCenterY'
p53
F28.001
sS'name'
p54
S'Default'
p55
sS'solventDielectric'
p56
F78.54
sS'solventAccessibilityFile'
p57
g10
sS'APBS_Path'
p58
S'/home/mirjr/Apps/ad/mgltools_x86_64Linux2_1.5.7/MGLToolsPckgs/binaries/apbs'
p59
sS'molecule2Path'
p60
g10
sS'coarseLengthX'
p61
F97.00750000000001
sS'kappaFunctionFile'
p62
g10
sS'coarseLengthZ'
p63
F98.76249999999999
sS'systemTemperature'
p64
F298.15
sS'gridPointsZ'
p65
I65
sS'energyOutput'
p66
S'Total'
p67
sb.(lp0
.